target datalayout = "e-m:e-p270:32:32-p271:32:32-p272:64:64-i64:64-i128:128-f80:128-n8:16:32:64-S128"
target triple = "x86_64-pc-linux-gnu"

%"struct.std::atomic" = type { %"struct.std::__atomic_base" }
%"struct.std::__atomic_base" = type { i8 }
%"class.google::protobuf::internal::LogMessage" = type { i32, ptr, i32, %"class.std::__cxx11::basic_string" }
%"class.std::__cxx11::basic_string" = type { %"struct.std::__cxx11::basic_string<char>::_Alloc_hider", i64, %union.anon }
%"struct.std::__cxx11::basic_string<char>::_Alloc_hider" = type { ptr }
%union.anon = type { i64, [8 x i8] }
%"class.google::protobuf::internal::LogFinisher" = type { i8 }
%"class.google::protobuf::io::EpsCopyOutputStream" = type <{ ptr, ptr, [32 x i8], ptr, i8, i8, i8, [5 x i8] }>

@.str.2 = private unnamed_addr constant [145 x i8] c"generated/home/dtcxzyw/WorkSpace/Projects/compilers/llvm-opt-benchmark/bench/opencv/opencv/3rdparty/protobuf/src/google/protobuf/message_lite.cc\00", align 1
@.str.14 = private unnamed_addr constant [37 x i8] c"CHECK failed: target + size == res: \00", align 1
@_ZN6google8protobuf2io17CodedOutputStream36default_serialization_deterministic_E = external global %"struct.std::atomic", align 1

; Function Attrs: noinline noreturn nounwind uwtable
define linkonce_odr hidden void @__clang_call_terminate(ptr noundef %0) #15 comdat {
  %2 = call ptr @__cxa_begin_catch(ptr %0) #3
  call void @_ZSt9terminatev() #23
  unreachable
}

; Function Attrs: mustprogress nounwind uwtable
define linkonce_odr noundef i32 @_ZStanSt12memory_orderSt23__memory_order_modifier(i32 noundef %0, i32 noundef %1) #6 comdat {
  %3 = alloca i32, align 4
  %4 = alloca i32, align 4
  store i32 %0, ptr %3, align 4, !tbaa !167
  store i32 %1, ptr %4, align 4, !tbaa !171
  %5 = load i32, ptr %3, align 4, !tbaa !167
  %6 = load i32, ptr %4, align 4, !tbaa !171
  %7 = and i32 %5, %6
  ret i32 %7
}

; Function Attrs: alwaysinline mustprogress nounwind uwtable
define linkonce_odr hidden noundef zeroext i1 @_ZNKSt13__atomic_baseIbE4loadESt12memory_order(ptr noundef nonnull align 1 dereferenceable(1) %0, i32 noundef %1) #17 comdat align 2 personality ptr @__gxx_personality_v0 {
  %3 = alloca ptr, align 8
  %4 = alloca i32, align 4
  %5 = alloca i32, align 4
  %6 = alloca i8, align 1
  store ptr %0, ptr %3, align 8, !tbaa !169
  store i32 %1, ptr %4, align 4, !tbaa !167
  %7 = load ptr, ptr %3, align 8
  call void @llvm.lifetime.start.p0(i64 4, ptr %5) #3
  %8 = load i32, ptr %4, align 4, !tbaa !167
  %9 = invoke noundef i32 @_ZStanSt12memory_orderSt23__memory_order_modifier(i32 noundef %8, i32 noundef 65535)
          to label %10 unwind label %28

10:                                               ; preds = %2
  store i32 %9, ptr %5, align 4, !tbaa !167
  br label %11

11:                                               ; preds = %10
  br label %12

12:                                               ; preds = %11
  br label %13

13:                                               ; preds = %12
  br label %14

14:                                               ; preds = %13
  br label %15

15:                                               ; preds = %14
  br label %16

16:                                               ; preds = %15
  %17 = getelementptr inbounds nuw %"struct.std::__atomic_base", ptr %7, i32 0, i32 0
  %18 = load i32, ptr %4, align 4, !tbaa !167
  switch i32 %18, label %19 [
    i32 1, label %21
    i32 2, label %21
    i32 5, label %23
  ]

19:                                               ; preds = %16
  %20 = load atomic i8, ptr %17 monotonic, align 1
  store i8 %20, ptr %6, align 1
  br label %25

21:                                               ; preds = %16, %16
  %22 = load atomic i8, ptr %17 acquire, align 1
  store i8 %22, ptr %6, align 1
  br label %25

23:                                               ; preds = %16
  %24 = load atomic i8, ptr %17 seq_cst, align 1
  store i8 %24, ptr %6, align 1
  br label %25

25:                                               ; preds = %23, %21, %19
  %26 = load i8, ptr %6, align 1, !tbaa !18, !range !25, !noundef !26
  %27 = trunc i8 %26 to i1
  call void @llvm.lifetime.end.p0(i64 4, ptr %5) #3
  ret i1 %27

28:                                               ; preds = %2
  %29 = landingpad { ptr, i32 }
          catch ptr null
  %30 = extractvalue { ptr, i32 } %29, 0
  call void @__clang_call_terminate(ptr %30) #23
  unreachable
}

; Function Attrs: mustprogress nounwind uwtable
define linkonce_odr hidden noundef zeroext i1 @_ZNKSt6atomicIbE4loadESt12memory_order(ptr noundef nonnull align 1 dereferenceable(1) %0, i32 noundef %1) #6 comdat align 2 {
  %3 = alloca ptr, align 8
  %4 = alloca i32, align 4
  store ptr %0, ptr %3, align 8, !tbaa !165
  store i32 %1, ptr %4, align 4, !tbaa !167
  %5 = load ptr, ptr %3, align 8
  %6 = getelementptr inbounds nuw %"struct.std::atomic", ptr %5, i32 0, i32 0
  %7 = load i32, ptr %4, align 4, !tbaa !167
  %8 = call noundef zeroext i1 @_ZNKSt13__atomic_baseIbE4loadESt12memory_order(ptr noundef nonnull align 1 dereferenceable(1) %6, i32 noundef %7) #3
  ret i1 %8
}

; Function Attrs: mustprogress nounwind uwtable
define linkonce_odr hidden void @_ZN6google8protobuf2io19EpsCopyOutputStreamC2EPvib(ptr noundef nonnull align 8 dereferenceable(59) %0, ptr noundef %1, i32 noundef %2, i1 noundef zeroext %3) unnamed_addr #6 comdat align 2 {
  %5 = alloca ptr, align 8
  %6 = alloca ptr, align 8
  %7 = alloca i32, align 4
  %8 = alloca i8, align 1
  store ptr %0, ptr %5, align 8, !tbaa !116
  store ptr %1, ptr %6, align 8, !tbaa !103
  store i32 %2, ptr %7, align 4, !tbaa !14
  %9 = zext i1 %3 to i8
  store i8 %9, ptr %8, align 1, !tbaa !18
  %10 = load ptr, ptr %5, align 8
  %11 = getelementptr inbounds nuw %"class.google::protobuf::io::EpsCopyOutputStream", ptr %10, i32 0, i32 0
  %12 = load ptr, ptr %6, align 8, !tbaa !103
  %13 = load i32, ptr %7, align 4, !tbaa !14
  %14 = sext i32 %13 to i64
  %15 = getelementptr inbounds i8, ptr %12, i64 %14
  store ptr %15, ptr %11, align 8, !tbaa !118
  %16 = getelementptr inbounds nuw %"class.google::protobuf::io::EpsCopyOutputStream", ptr %10, i32 0, i32 1
  store ptr null, ptr %16, align 8, !tbaa !119
  %17 = getelementptr inbounds nuw %"class.google::protobuf::io::EpsCopyOutputStream", ptr %10, i32 0, i32 3
  store ptr null, ptr %17, align 8, !tbaa !120
  %18 = getelementptr inbounds nuw %"class.google::protobuf::io::EpsCopyOutputStream", ptr %10, i32 0, i32 4
  store i8 0, ptr %18, align 8, !tbaa !121
  %19 = getelementptr inbounds nuw %"class.google::protobuf::io::EpsCopyOutputStream", ptr %10, i32 0, i32 5
  store i8 0, ptr %19, align 1, !tbaa !122
  %20 = getelementptr inbounds nuw %"class.google::protobuf::io::EpsCopyOutputStream", ptr %10, i32 0, i32 6
  %21 = load i8, ptr %8, align 1, !tbaa !18, !range !25, !noundef !26
  %22 = trunc i8 %21 to i1
  %23 = zext i1 %22 to i8
  store i8 %23, ptr %20, align 2, !tbaa !123
  ret void
}

; Function Attrs: mustprogress nounwind uwtable
define linkonce_odr hidden noundef zeroext i1 @_ZN6google8protobuf2io17CodedOutputStream35IsDefaultSerializationDeterministicEv() #6 comdat align 2 {
  %1 = call noundef zeroext i1 @_ZNKSt6atomicIbE4loadESt12memory_order(ptr noundef nonnull align 1 dereferenceable(1) @_ZN6google8protobuf2io17CodedOutputStream36default_serialization_deterministic_E, i32 noundef 0) #3
  %2 = zext i1 %1 to i32
  %3 = icmp ne i32 %2, 0
  ret i1 %3
}

; Function Attrs: inlinehint mustprogress uwtable
define linkonce_odr hidden noundef ptr @_ZN6google8protobuf20SerializeToArrayImplERKNS0_11MessageLiteEPhi(ptr noundef nonnull align 8 dereferenceable(16) %0, ptr noundef %1, i32 noundef %2) #8 comdat personality ptr @__gxx_personality_v0 {
  %4 = alloca ptr, align 8
  %5 = alloca ptr, align 8
  %6 = alloca i32, align 4
  %7 = alloca i8, align 1
  %8 = alloca %"class.google::protobuf::io::EpsCopyOutputStream", align 8
  %9 = alloca ptr, align 8
  %10 = alloca %"class.google::protobuf::internal::LogMessage", align 8
  %11 = alloca i1, align 1
  %12 = alloca i1, align 1
  %13 = alloca ptr, align 8
  %14 = alloca i32, align 4
  %15 = alloca %"class.google::protobuf::internal::LogFinisher", align 1
  store ptr %0, ptr %4, align 8, !tbaa !3
  store ptr %1, ptr %5, align 8, !tbaa !10
  store i32 %2, ptr %6, align 4, !tbaa !14
  call void @llvm.lifetime.start.p0(i64 1, ptr %7) #3
  store i8 0, ptr %7, align 1, !tbaa !18
  call void @llvm.lifetime.start.p0(i64 64, ptr %8) #3
  %16 = load ptr, ptr %5, align 8, !tbaa !10
  %17 = load i32, ptr %6, align 4, !tbaa !14
  %18 = call noundef zeroext i1 @_ZN6google8protobuf2io17CodedOutputStream35IsDefaultSerializationDeterministicEv()
  call void @_ZN6google8protobuf2io19EpsCopyOutputStreamC2EPvib(ptr noundef nonnull align 8 dereferenceable(59) %8, ptr noundef %16, i32 noundef %17, i1 noundef zeroext %18)
  call void @llvm.lifetime.start.p0(i64 8, ptr %9) #3
  %19 = load ptr, ptr %4, align 8, !tbaa !3
  %20 = load ptr, ptr %5, align 8, !tbaa !10
  %21 = load ptr, ptr %19, align 8, !tbaa !12
  %22 = getelementptr inbounds ptr, ptr %21, i64 11
  %23 = load ptr, ptr %22, align 8
  %24 = call noundef ptr %23(ptr noundef nonnull align 8 dereferenceable(16) %19, ptr noundef %20, ptr noundef %8)
  store ptr %24, ptr %9, align 8, !tbaa !10
  br label %25

25:                                               ; preds = %44, %3
  br i1 false, label %26, label %60

26:                                               ; preds = %25
  %27 = load ptr, ptr %5, align 8, !tbaa !10
  %28 = load i32, ptr %6, align 4, !tbaa !14
  %29 = sext i32 %28 to i64
  %30 = getelementptr inbounds i8, ptr %27, i64 %29
  %31 = load ptr, ptr %9, align 8, !tbaa !10
  %32 = icmp eq ptr %30, %31
  store i1 false, ptr %11, align 1
  store i1 false, ptr %12, align 1
  call void @llvm.lifetime.start.p0(i64 1, ptr %15) #3
  br i1 %32, label %33, label %34

33:                                               ; preds = %26
  br label %38

34:                                               ; preds = %26
  call void @llvm.lifetime.start.p0(i64 56, ptr %10) #3
  store i1 true, ptr %11, align 1
  call void @_ZN6google8protobuf8internal10LogMessageC1ENS0_8LogLevelEPKci(ptr noundef nonnull align 8 dereferenceable(56) %10, i32 noundef 3, ptr noundef @.str.2, i32 noundef 353)
  store i1 true, ptr %12, align 1
  %35 = invoke noundef nonnull align 8 dereferenceable(56) ptr @_ZN6google8protobuf8internal10LogMessagelsEPKc(ptr noundef nonnull align 8 dereferenceable(56) %10, ptr noundef @.str.14)
          to label %36 unwind label %45

36:                                               ; preds = %34
  invoke void @_ZN6google8protobuf8internal11LogFinisheraSERNS1_10LogMessageE(ptr noundef nonnull align 1 dereferenceable(1) %15, ptr noundef nonnull align 8 dereferenceable(56) %35)
          to label %37 unwind label %49

37:                                               ; preds = %36
  br label %38

38:                                               ; preds = %37, %33
  call void @llvm.lifetime.end.p0(i64 1, ptr %15) #3
  %39 = load i1, ptr %12, align 1
  br i1 %39, label %40, label %41

40:                                               ; preds = %38
  call void @_ZN6google8protobuf8internal10LogMessageD1Ev(ptr noundef nonnull align 8 dereferenceable(56) %10) #3
  br label %41

41:                                               ; preds = %40, %38
  %42 = load i1, ptr %11, align 1
  br i1 %42, label %43, label %44

43:                                               ; preds = %41
  call void @llvm.lifetime.end.p0(i64 56, ptr %10) #3
  br label %44

44:                                               ; preds = %43, %41
  br label %25, !llvm.loop !104

45:                                               ; preds = %34
  %46 = landingpad { ptr, i32 }
          cleanup
  %47 = extractvalue { ptr, i32 } %46, 0
  store ptr %47, ptr %13, align 8
  %48 = extractvalue { ptr, i32 } %46, 1
  store i32 %48, ptr %14, align 4
  br label %53

49:                                               ; preds = %36
  %50 = landingpad { ptr, i32 }
          cleanup
  %51 = extractvalue { ptr, i32 } %50, 0
  store ptr %51, ptr %13, align 8
  %52 = extractvalue { ptr, i32 } %50, 1
  store i32 %52, ptr %14, align 4
  call void @llvm.lifetime.end.p0(i64 1, ptr %15) #3
  br label %53

53:                                               ; preds = %49, %45
  %54 = load i1, ptr %12, align 1
  br i1 %54, label %55, label %56

55:                                               ; preds = %53
  call void @_ZN6google8protobuf8internal10LogMessageD1Ev(ptr noundef nonnull align 8 dereferenceable(56) %10) #3
  br label %56

56:                                               ; preds = %55, %53
  %57 = load i1, ptr %11, align 1
  br i1 %57, label %58, label %59

58:                                               ; preds = %56
  call void @llvm.lifetime.end.p0(i64 56, ptr %10) #3
  br label %59

59:                                               ; preds = %58, %56
  call void @llvm.lifetime.end.p0(i64 8, ptr %9) #3
  call void @llvm.lifetime.end.p0(i64 64, ptr %8) #3
  call void @llvm.lifetime.end.p0(i64 1, ptr %7) #3
  br label %62

60:                                               ; preds = %25
  %61 = load ptr, ptr %9, align 8, !tbaa !10
  call void @llvm.lifetime.end.p0(i64 8, ptr %9) #3
  call void @llvm.lifetime.end.p0(i64 64, ptr %8) #3
  call void @llvm.lifetime.end.p0(i64 1, ptr %7) #3
  ret ptr %61

62:                                               ; preds = %59
  %63 = load ptr, ptr %13, align 8
  %64 = load i32, ptr %14, align 4
  %65 = insertvalue { ptr, i32 } poison, ptr %63, 0
  %66 = insertvalue { ptr, i32 } %65, i32 %64, 1
  resume { ptr, i32 } %66
}

; Function Attrs: mustprogress uwtable
define hidden noundef ptr @_ZNK6google8protobuf11MessageLite31SerializeWithCachedSizesToArrayEPh(ptr noundef nonnull align 8 dereferenceable(16) %0, ptr noundef %1) #4 align 2 {
  %3 = alloca ptr, align 8
  %4 = alloca ptr, align 8
  store ptr %0, ptr %3, align 8, !tbaa !3
  store ptr %1, ptr %4, align 8, !tbaa !10
  %5 = load ptr, ptr %3, align 8
  %6 = load ptr, ptr %4, align 8, !tbaa !10
  %7 = load ptr, ptr %5, align 8, !tbaa !12
  %8 = getelementptr inbounds ptr, ptr %7, i64 9
  %9 = load ptr, ptr %8, align 8
  %10 = call noundef i32 %9(ptr noundef nonnull align 8 dereferenceable(16) %5)
  %11 = call noundef ptr @_ZN6google8protobuf20SerializeToArrayImplERKNS0_11MessageLiteEPhi(ptr noundef nonnull align 8 dereferenceable(16) %5, ptr noundef %6, i32 noundef %10)
  ret ptr %11
}