; Function Attrs: mustprogress uwtable
define hidden noundef ptr @_ZNK6google8protobuf11MessageLite31SerializeWithCachedSizesToArrayEPh(ptr noundef nonnull align 8 dereferenceable(16) %0, ptr noundef %1) local_unnamed_addr #3 align 2 personality ptr @__gxx_personality_v0 {
  %3 = alloca %"class.google::protobuf::io::EpsCopyOutputStream", align 8
  %4 = load ptr, ptr %0, align 8, !tbaa !25
  %5 = getelementptr inbounds nuw i8, ptr %4, i64 72
  %6 = load ptr, ptr %5, align 8
  %7 = tail call noundef i32 %6(ptr noundef nonnull align 8 dereferenceable(16) %0)
  call void @llvm.lifetime.start.p0(i64 64, ptr nonnull %3) #20
  %8 = load atomic i8, ptr @_ZN6google8protobuf2io17CodedOutputStream36default_serialization_deterministic_E monotonic, align 1
  %9 = and i8 %8, 1
  %10 = sext i32 %7 to i64
  %11 = getelementptr inbounds i8, ptr %1, i64 %10
  store ptr %11, ptr %3, align 8, !tbaa !74
  %12 = getelementptr inbounds nuw i8, ptr %3, i64 8
  store ptr null, ptr %12, align 8, !tbaa !77
  %13 = getelementptr inbounds nuw i8, ptr %3, i64 48
  store ptr null, ptr %13, align 8, !tbaa !78
  %14 = getelementptr inbounds nuw i8, ptr %3, i64 56
  store i8 0, ptr %14, align 8, !tbaa !79
  %15 = getelementptr inbounds nuw i8, ptr %3, i64 57
  store i8 0, ptr %15, align 1, !tbaa !80
  %16 = getelementptr inbounds nuw i8, ptr %3, i64 58
  store i8 %9, ptr %16, align 2, !tbaa !81
  %17 = load ptr, ptr %0, align 8, !tbaa !25
  %18 = getelementptr inbounds nuw i8, ptr %17, i64 88
  %19 = load ptr, ptr %18, align 8
  %20 = call noundef ptr %19(ptr noundef nonnull align 8 dereferenceable(16) %0, ptr noundef %1, ptr noundef nonnull %3)
  call void @llvm.lifetime.end.p0(i64 64, ptr nonnull %3) #20
  ret ptr %20
}